target datalayout = "e-m:e-p270:32:32-p271:32:32-p272:64:64-i64:64-i128:128-f80:128-n8:16:32:64-S128"
target triple = "x86_64-pc-linux-gnu"

%struct.QemuMutex = type { %union.pthread_mutex_t, i8 }
%union.pthread_mutex_t = type { %struct.__pthread_mutex_s }
%struct.__pthread_mutex_s = type { i32, i32, i32, i32, i32, i16, i16, %struct.__pthread_internal_list }
%struct.__pthread_internal_list = type { ptr, ptr }
%struct.BlockJob = type { %struct.Job, i32, i64, %struct.RateLimit, ptr, %struct.Notifier, %struct.Notifier, %struct.Notifier, %struct.Notifier, %struct.Notifier, ptr }
%struct.Job = type { ptr, ptr, ptr, i8, i8, ptr, ptr, %struct.ProgressMeter, ptr, i32, i32, %struct.QEMUTimer, i32, i8, i8, i8, i8, i8, i8, i32, ptr, %struct.NotifierList, %struct.NotifierList, %struct.NotifierList, %struct.NotifierList, %struct.NotifierList, %struct.anon.12, ptr, %struct.anon.13 }
%struct.ProgressMeter = type { i64, i64, %struct.QemuMutex }
%struct.QEMUTimer = type { i64, ptr, ptr, ptr, ptr, i32, i32 }
%struct.NotifierList = type { %struct.anon.11 }
%struct.anon.11 = type { ptr }
%struct.anon.12 = type { ptr, ptr }
%struct.anon.13 = type { ptr, ptr }
%struct.RateLimit = type { %struct.QemuMutex, i64, i64, i64, i64, i64 }
%struct.Notifier = type { ptr, %struct.anon.14 }
%struct.anon.14 = type { ptr, ptr }
%struct.DriveBackupState = type { ptr, ptr }

@.str.1 = private unnamed_addr constant [19 x i8] c"../qemu/blockdev.c\00", align 1
@.str.214 = private unnamed_addr constant [11 x i8] c"state->job\00", align 1
@__PRETTY_FUNCTION__.drive_backup_commit = private unnamed_addr constant [33 x i8] c"void drive_backup_commit(void *)\00", align 1

; Function Attrs: nounwind sspstrong uwtable
define internal void @drive_backup_commit(ptr noundef %0) #0 {
  %2 = alloca ptr, align 8
  %3 = alloca ptr, align 8
  store ptr %0, ptr %2, align 8
  call void @llvm.lifetime.start.p0(i64 8, ptr %3) #16
  %4 = load ptr, ptr %2, align 8
  store ptr %4, ptr %3, align 8
  %5 = load ptr, ptr %3, align 8
  %6 = getelementptr inbounds nuw %struct.DriveBackupState, ptr %5, i32 0, i32 1
  %7 = load ptr, ptr %6, align 8
  %8 = icmp ne ptr %7, null
  br i1 %8, label %9, label %10

9:                                                ; preds = %1
  br label %11

10:                                               ; preds = %1
  call void @__assert_fail(ptr noundef @.str.214, ptr noundef @.str.1, i32 noundef 1751, ptr noundef @__PRETTY_FUNCTION__.drive_backup_commit) #15
  unreachable

11:                                               ; preds = %9
  %12 = load ptr, ptr %3, align 8
  %13 = getelementptr inbounds nuw %struct.DriveBackupState, ptr %12, i32 0, i32 1
  %14 = load ptr, ptr %13, align 8
  %15 = getelementptr inbounds nuw %struct.BlockJob, ptr %14, i32 0, i32 0
  call void @job_start(ptr noundef %15)
  call void @llvm.lifetime.end.p0(i64 8, ptr %3) #16
  ret void
}