; Function Attrs: nounwind sspstrong uwtable
define internal void @drive_backup_commit(ptr noundef readonly captures(none) %0) #0 {
  %2 = getelementptr inbounds nuw i8, ptr %0, i64 8
  %3 = load ptr, ptr %2, align 8
  %.not = icmp eq ptr %3, null
  br i1 %.not, label %4, label %5

4:                                                ; preds = %1
  tail call void @__assert_fail(ptr noundef nonnull @.str.214, ptr noundef nonnull @.str.1, i32 noundef 1751, ptr noundef nonnull @__PRETTY_FUNCTION__.drive_backup_commit) #15
  unreachable

5:                                                ; preds = %1
  tail call void @job_start(ptr noundef nonnull %3) #14
  ret void
}